; Function Attrs: nounwind uwtable
define noundef i32 @cli_jsonint64(ptr noundef %0, ptr noundef %1, i64 noundef %2) local_unnamed_addr #0 {
  %4 = icmp eq ptr %0, null
  br i1 %4, label %5, label %6

5:                                                ; preds = %3
  tail call void (ptr, ...) @cli_dbgmsg(ptr noundef nonnull @.str.11) #2
  br label %21

6:                                                ; preds = %3
  %7 = tail call i32 @json_object_get_type(ptr noundef nonnull %0) #2
  switch i32 %7, label %21 [
    i32 4, label %8
    i32 5, label %.thread
  ]

8:                                                ; preds = %6
  %9 = icmp eq ptr %1, null
  br i1 %9, label %10, label %11

10:                                               ; preds = %8
  tail call void (ptr, ...) @cli_dbgmsg(ptr noundef nonnull @.str.12) #2
  br label %21

11:                                               ; preds = %8
  %12 = tail call ptr @json_object_new_int64(i64 noundef %2) #2
  %13 = icmp eq ptr %12, null
  br i1 %13, label %16, label %17

.thread:                                          ; preds = %6
  %14 = tail call ptr @json_object_new_int64(i64 noundef %2) #2
  %15 = icmp eq ptr %14, null
  br i1 %15, label %16, label %19

16:                                               ; preds = %.thread, %11
  tail call void (ptr, ...) @cli_errmsg(ptr noundef nonnull @.str.13) #2
  br label %21

17:                                               ; preds = %11
  %18 = tail call i32 @json_object_object_add(ptr noundef nonnull %0, ptr noundef nonnull %1, ptr noundef nonnull %12) #2
  br label %21

19:                                               ; preds = %.thread
  %20 = tail call i32 @json_object_array_add(ptr noundef nonnull %0, ptr noundef nonnull %14) #2
  br label %21

21:                                               ; preds = %6, %17, %19, %16, %10, %5
  %.0 = phi i32 [ 2, %5 ], [ 2, %10 ], [ 20, %16 ], [ 0, %19 ], [ 0, %17 ], [ 3, %6 ]
  ret i32 %.0
}